	.file	"array.c"
	.text
	.globl	main
	.type	main, @function
main:
.LFB0:
	.cfi_startproc
	pushq	%rbp
	.cfi_def_cfa_offset 16
	.cfi_offset 6, -16
	movq	%rsp, %rbp
	.cfi_def_cfa_register 6
	subq	$800, %rsp
	leaq	-800(%rbp), %rsi
	movl	$0, %eax
	movl	$100, %edx
	movq	%rsi, %rdi
	movq	%rdx, %rcx
	rep stosq
	leaq	-800(%rbp), %rax
	movq	%rax, %rdi
	call	dummy
	movl	$0, %eax
	leave
	.cfi_def_cfa 7, 8
	ret
	.cfi_endproc
.LFE0:
	.size	main, .-main
	.section	.rodata
.LC0:
	.string	"%d "
	.text
	.globl	dummy
	.type	dummy, @function
dummy:
.LFB1:
	.cfi_startproc
	pushq	%rbp
	.cfi_def_cfa_offset 16
	.cfi_offset 6, -16
	movq	%rsp, %rbp
	.cfi_def_cfa_register 6
	subq	$32, %rsp
	movq	%rdi, -24(%rbp)
	movl	$0, -4(%rbp)
	movl	$0, -4(%rbp)
	jmp	.L4
.L5:
	movl	-4(%rbp), %eax
	cltq
	leaq	0(,%rax,8), %rdx
	movq	-24(%rbp), %rax
	addq	%rdx, %rax
	movq	(%rax), %rax
	movq	%rax, %rsi
	movl	$.LC0, %edi
	movl	$0, %eax
	call	printf
	addl	$1, -4(%rbp)
.L4:
	cmpl	$99, -4(%rbp)
	jle	.L5
	leave
	.cfi_def_cfa 7, 8
	ret
	.cfi_endproc
.LFE1:
	.size	dummy, .-dummy
	.ident	"GCC: (GNU) 4.8.5 20150623 (Red Hat 4.8.5-39)"
	.section	.note.GNU-stack,"",@progbits
